target datalayout = "e-m:e-p270:32:32-p271:32:32-p272:64:64-i64:64-i128:128-f80:128-n8:16:32:64-S128"
target triple = "x86_64-pc-linux-gnu"

%"struct.std::_Rb_tree_header" = type { %"struct.std::_Rb_tree_node_base", i64 }
%"struct.std::_Rb_tree_node_base" = type { i32, ptr, ptr, ptr }
%"class.vcg::Matrix44.180" = type { %"struct.std::array.181" }
%"struct.std::array.181" = type { [16 x double] }
%"class.vcg::Point3.17" = type { [3 x float] }
%class.EditAlignPlugin = type { %class.QObject, %class.EditTool, %class.QFont, i32, ptr, %"class.vcg::Trackball", ptr, ptr, %"class.vcg::MeshTree", %"class.vcg::AlignPair::Param", %"class.vcg::MeshTree<MeshModel, float>::Param", ptr }
%class.QObject = type { ptr, %class.QScopedPointer }
%class.QScopedPointer = type { ptr }
%class.EditTool = type { %class.MeshLabPluginLogger }
%class.MeshLabPluginLogger = type { ptr, ptr }
%class.QFont = type <{ %class.QExplicitlySharedDataPointer, i32, [4 x i8] }>
%class.QExplicitlySharedDataPointer = type { ptr }
%"class.vcg::Trackball" = type <{ %"class.vcg::Transform", %"class.vcg::View", i32, ptr, ptr, ptr, %"class.std::map.18", %"class.vcg::Similarityf", %"class.vcg::Similarityf", %"class.vcg::Similarityf", %"class.vcg::Point3.17", [4 x i8], %"class.std::vector.26", i8, [3 x i8], i32, i32, %"class.vcg::Quaternion", i8, i8, [2 x i8], %"class.std::__cxx11::list", i32, i8, [3 x i8] }>
%"class.vcg::Transform" = type { %"class.vcg::Similarityf", %"class.vcg::Point3.17", float }
%"class.vcg::View" = type <{ %"class.vcg::Matrix44", %"class.vcg::Matrix44", %"class.vcg::Matrix44", %"class.vcg::Matrix44", [4 x i32], i8, [3 x i8] }>
%"class.vcg::Matrix44" = type { %"struct.std::array" }
%"struct.std::array" = type { [16 x float] }
%"class.std::map.18" = type { %"class.std::_Rb_tree.19" }
%"class.std::_Rb_tree.19" = type { %"struct.std::_Rb_tree<int, std::pair<const int, vcg::TrackMode *>, std::_Select1st<std::pair<const int, vcg::TrackMode *>>, std::less<int>>::_Rb_tree_impl" }
%"struct.std::_Rb_tree<int, std::pair<const int, vcg::TrackMode *>, std::_Select1st<std::pair<const int, vcg::TrackMode *>>, std::less<int>>::_Rb_tree_impl" = type { %"struct.std::_Rb_tree_key_compare.23", %"struct.std::_Rb_tree_header" }
%"struct.std::_Rb_tree_key_compare.23" = type { %"struct.std::less.24" }
%"struct.std::less.24" = type { i8 }
%"class.vcg::Similarityf" = type { %"class.vcg::Similarity" }
%"class.vcg::Similarity" = type { %"class.vcg::Quaternion", %"class.vcg::Point3.17", float }
%"class.std::vector.26" = type { %"struct.std::_Vector_base.27" }
%"struct.std::_Vector_base.27" = type { %"struct.std::_Vector_base<vcg::Point3<float>, std::allocator<vcg::Point3<float>>>::_Vector_impl" }
%"struct.std::_Vector_base<vcg::Point3<float>, std::allocator<vcg::Point3<float>>>::_Vector_impl" = type { %"struct.std::_Vector_base<vcg::Point3<float>, std::allocator<vcg::Point3<float>>>::_Vector_impl_data" }
%"struct.std::_Vector_base<vcg::Point3<float>, std::allocator<vcg::Point3<float>>>::_Vector_impl_data" = type { ptr, ptr, ptr }
%"class.vcg::Quaternion" = type { %"class.vcg::Point4.16" }
%"class.vcg::Point4.16" = type { [4 x float] }
%"class.std::__cxx11::list" = type { %"class.std::__cxx11::_List_base" }
%"class.std::__cxx11::_List_base" = type { %"struct.std::__cxx11::_List_base<vcg::Transform, std::allocator<vcg::Transform>>::_List_impl" }
%"struct.std::__cxx11::_List_base<vcg::Transform, std::allocator<vcg::Transform>>::_List_impl" = type { %"struct.std::__detail::_List_node_header" }
%"struct.std::__detail::_List_node_header" = type { %"struct.std::__detail::_List_node_base", i64 }
%"struct.std::__detail::_List_node_base" = type { ptr, ptr }
%"class.vcg::MeshTree" = type { %"class.std::map.34", %"class.std::vector.39", %"class.vcg::OccupancyGrid", ptr }
%"class.std::map.34" = type { %"class.std::_Rb_tree.35" }
%"class.std::_Rb_tree.35" = type { %"struct.std::_Rb_tree<int, std::pair<const int, vcg::MeshTree<MeshModel, float>::MeshNode *>, std::_Select1st<std::pair<const int, vcg::MeshTree<MeshModel, float>::MeshNode *>>, std::less<int>>::_Rb_tree_impl" }
%"struct.std::_Rb_tree<int, std::pair<const int, vcg::MeshTree<MeshModel, float>::MeshNode *>, std::_Select1st<std::pair<const int, vcg::MeshTree<MeshModel, float>::MeshNode *>>, std::less<int>>::_Rb_tree_impl" = type { %"struct.std::_Rb_tree_key_compare.23", %"struct.std::_Rb_tree_header" }
%"class.std::vector.39" = type { %"struct.std::_Vector_base.40" }
%"struct.std::_Vector_base.40" = type { %"struct.std::_Vector_base<vcg::AlignPair::Result, std::allocator<vcg::AlignPair::Result>>::_Vector_impl" }
%"struct.std::_Vector_base<vcg::AlignPair::Result, std::allocator<vcg::AlignPair::Result>>::_Vector_impl" = type { %"struct.std::_Vector_base<vcg::AlignPair::Result, std::allocator<vcg::AlignPair::Result>>::_Vector_impl_data" }
%"struct.std::_Vector_base<vcg::AlignPair::Result, std::allocator<vcg::AlignPair::Result>>::_Vector_impl_data" = type { ptr, ptr, ptr }
%"class.vcg::OccupancyGrid" = type { %"class.vcg::GridStaticObj", i32, i32, i32, %"class.std::vector.46", %"class.std::map.51" }
%"class.vcg::GridStaticObj" = type { %"class.vcg::BasicGrid", ptr }
%"class.vcg::BasicGrid" = type { %"class.vcg::Box3.44", %"class.vcg::Point3.17", %"class.vcg::Point3.45", %"class.vcg::Point3.17" }
%"class.vcg::Box3.44" = type { %"class.vcg::Point3.17", %"class.vcg::Point3.17" }
%"class.vcg::Point3.45" = type { [3 x i32] }
%"class.std::vector.46" = type { %"struct.std::_Vector_base.47" }
%"struct.std::_Vector_base.47" = type { %"struct.std::_Vector_base<vcg::OccupancyGrid<CMeshO, float>::OGArcInfo, std::allocator<vcg::OccupancyGrid<CMeshO, float>::OGArcInfo>>::_Vector_impl" }
%"struct.std::_Vector_base<vcg::OccupancyGrid<CMeshO, float>::OGArcInfo, std::allocator<vcg::OccupancyGrid<CMeshO, float>::OGArcInfo>>::_Vector_impl" = type { %"struct.std::_Vector_base<vcg::OccupancyGrid<CMeshO, float>::OGArcInfo, std::allocator<vcg::OccupancyGrid<CMeshO, float>::OGArcInfo>>::_Vector_impl_data" }
%"struct.std::_Vector_base<vcg::OccupancyGrid<CMeshO, float>::OGArcInfo, std::allocator<vcg::OccupancyGrid<CMeshO, float>::OGArcInfo>>::_Vector_impl_data" = type { ptr, ptr, ptr }
%"class.std::map.51" = type { %"class.std::_Rb_tree.52" }
%"class.std::_Rb_tree.52" = type { %"struct.std::_Rb_tree<int, std::pair<const int, vcg::OccupancyGrid<CMeshO, float>::OGMeshInfo>, std::_Select1st<std::pair<const int, vcg::OccupancyGrid<CMeshO, float>::OGMeshInfo>>, std::less<int>>::_Rb_tree_impl" }
%"struct.std::_Rb_tree<int, std::pair<const int, vcg::OccupancyGrid<CMeshO, float>::OGMeshInfo>, std::_Select1st<std::pair<const int, vcg::OccupancyGrid<CMeshO, float>::OGMeshInfo>>, std::less<int>>::_Rb_tree_impl" = type { %"struct.std::_Rb_tree_key_compare.23", %"struct.std::_Rb_tree_header" }
%"class.vcg::AlignPair::Param" = type { i32, i32, i32, double, double, i32, double, i32, double, double, double, i32, i8, double, double, i32, i32 }
%"class.vcg::MeshTree<MeshModel, float>::Param" = type { i32, float, float }
%"class.vcg::AlignPair::Result" = type <{ i32, i32, %"class.vcg::Matrix44.180", %"class.std::vector.182", %"class.std::vector.182", %"class.std::vector.182", %"class.std::vector.182", %"class.vcg::Histogram", %"class.vcg::AlignPair::Stat", %"class.vcg::AlignPair::Param", i32, [4 x i8], double, float, [4 x i8] }>
%"class.std::vector.182" = type { %"struct.std::_Vector_base.183" }
%"struct.std::_Vector_base.183" = type { %"struct.std::_Vector_base<vcg::Point3<double>, std::allocator<vcg::Point3<double>>>::_Vector_impl" }
%"struct.std::_Vector_base<vcg::Point3<double>, std::allocator<vcg::Point3<double>>>::_Vector_impl" = type { %"struct.std::_Vector_base<vcg::Point3<double>, std::allocator<vcg::Point3<double>>>::_Vector_impl_data" }
%"struct.std::_Vector_base<vcg::Point3<double>, std::allocator<vcg::Point3<double>>>::_Vector_impl_data" = type { ptr, ptr, ptr }
%"class.vcg::Histogram" = type { %"class.std::vector.98", %"class.std::vector.98", float, float, float, float, i32, float, float, float }
%"class.std::vector.98" = type { %"struct.std::_Vector_base.99" }
%"struct.std::_Vector_base.99" = type { %"struct.std::_Vector_base<float, std::allocator<float>>::_Vector_impl" }
%"struct.std::_Vector_base<float, std::allocator<float>>::_Vector_impl" = type { %"struct.std::_Vector_base<float, std::allocator<float>>::_Vector_impl_data" }
%"struct.std::_Vector_base<float, std::allocator<float>>::_Vector_impl_data" = type { ptr, ptr, ptr }
%"class.vcg::AlignPair::Stat" = type { %"class.std::vector.187", i32, i32, i32, i32 }
%"class.std::vector.187" = type { %"struct.std::_Vector_base.188" }
%"struct.std::_Vector_base.188" = type { %"struct.std::_Vector_base<vcg::AlignPair::Stat::IterInfo, std::allocator<vcg::AlignPair::Stat::IterInfo>>::_Vector_impl" }
%"struct.std::_Vector_base<vcg::AlignPair::Stat::IterInfo, std::allocator<vcg::AlignPair::Stat::IterInfo>>::_Vector_impl" = type { %"struct.std::_Vector_base<vcg::AlignPair::Stat::IterInfo, std::allocator<vcg::AlignPair::Stat::IterInfo>>::_Vector_impl_data" }
%"struct.std::_Vector_base<vcg::AlignPair::Stat::IterInfo, std::allocator<vcg::AlignPair::Stat::IterInfo>>::_Vector_impl_data" = type { ptr, ptr, ptr }
%class.QPaintDevice = type { ptr, i16, ptr }
%class.AlignDialog = type { %class.QDockWidget, %"class.Ui::alignDialog", ptr, ptr, ptr, ptr, %class.QMap.224, %class.QMap.225, %class.QMap.225, %class.QMenu }
%class.QDockWidget = type { %class.QWidget }
%class.QWidget = type { %class.QObject, %class.QPaintDevice, ptr }
%"class.Ui::alignDialog" = type { %class.Ui_alignDialog }
%class.Ui_alignDialog = type { ptr, ptr, ptr, ptr, ptr, ptr, ptr, ptr, ptr, ptr, ptr, ptr, ptr, ptr, ptr, ptr, ptr, ptr, ptr, ptr, ptr, ptr, ptr, ptr, ptr, ptr, ptr, ptr }
%class.QMap.224 = type { ptr }
%class.QMap.225 = type { ptr }
%class.QMenu = type { %class.QWidget }

; Function Attrs: mustprogress nounwind uwtable
define linkonce_odr noundef ptr @_ZNK15EditAlignPlugin10currentArcEv(ptr noundef nonnull align 8 dereferenceable(1056) %0) #4 comdat align 2 {
  %2 = alloca ptr, align 8
  store ptr %0, ptr %2, align 8
  %3 = load ptr, ptr %2, align 8
  %4 = getelementptr inbounds %class.EditAlignPlugin, ptr %3, i32 0, i32 4
  %5 = load ptr, ptr %4, align 8
  %6 = getelementptr inbounds %class.AlignDialog, ptr %5, i32 0, i32 5
  %7 = load ptr, ptr %6, align 8
  ret ptr %7
}

; Function Attrs: mustprogress uwtable
define void @_ZN15EditAlignPlugin16recalcCurrentArcEv(ptr noundef nonnull align 8 dereferenceable(1056) %0) #5 align 2 {
  %2 = alloca ptr, align 8
  %3 = alloca %"class.vcg::AlignPair::Param", align 8
  %4 = alloca ptr, align 8
  store ptr %0, ptr %2, align 8
  %5 = load ptr, ptr %2, align 8
  %6 = getelementptr inbounds %class.EditAlignPlugin, ptr %5, i32 0, i32 4
  %7 = load ptr, ptr %6, align 8
  call void @_ZN7QWidget10setEnabledEb(ptr noundef nonnull align 8 dereferenceable(48) %7, i1 noundef zeroext false)
  %8 = getelementptr inbounds %class.EditAlignPlugin, ptr %5, i32 0, i32 8
  %9 = call noundef ptr @_ZNK15EditAlignPlugin10currentArcEv(ptr noundef nonnull align 8 dereferenceable(1056) %5)
  %10 = getelementptr inbounds %"class.vcg::AlignPair::Result", ptr %9, i32 0, i32 1
  %11 = load i32, ptr %10, align 4
  %12 = call noundef ptr @_ZNK15EditAlignPlugin10currentArcEv(ptr noundef nonnull align 8 dereferenceable(1056) %5)
  %13 = getelementptr inbounds %"class.vcg::AlignPair::Result", ptr %12, i32 0, i32 0
  %14 = load i32, ptr %13, align 8
  %15 = call noundef ptr @_ZNK15EditAlignPlugin10currentArcEv(ptr noundef nonnull align 8 dereferenceable(1056) %5)
  %16 = call noundef ptr @_ZNK15EditAlignPlugin10currentArcEv(ptr noundef nonnull align 8 dereferenceable(1056) %5)
  %17 = getelementptr inbounds %"class.vcg::AlignPair::Result", ptr %16, i32 0, i32 9
  call void @llvm.memcpy.p0.p0.i64(ptr align 8 %3, ptr align 8 %17, i64 112, i1 false)
  call void @_ZN3vcg8MeshTreeI9MeshModelfE10ProcessArcEiiRNS_9AlignPair6ResultENS3_5ParamE(ptr noundef nonnull align 8 dereferenceable(240) %8, i32 noundef %11, i32 noundef %14, ptr noundef nonnull align 8 dereferenceable(484) %15, ptr noundef byval(%"class.vcg::AlignPair::Param") align 8 %3)
  %18 = getelementptr inbounds %class.EditAlignPlugin, ptr %5, i32 0, i32 8
  %19 = call noundef ptr @_ZNK15EditAlignPlugin10currentArcEv(ptr noundef nonnull align 8 dereferenceable(1056) %5)
  %20 = getelementptr inbounds %"class.vcg::AlignPair::Result", ptr %19, i32 0, i32 9
  call void @_ZN3vcg8MeshTreeI9MeshModelfE13ProcessGlobalERNS_9AlignPair5ParamE(ptr noundef nonnull align 8 dereferenceable(240) %18, ptr noundef nonnull align 8 dereferenceable(112) %20)
  %21 = call noundef ptr @_ZNK15EditAlignPlugin10currentArcEv(ptr noundef nonnull align 8 dereferenceable(1056) %5)
  store ptr %21, ptr %4, align 8
  %22 = getelementptr inbounds %class.EditAlignPlugin, ptr %5, i32 0, i32 4
  %23 = load ptr, ptr %22, align 8
  call void @_ZN11AlignDialog11rebuildTreeEv(ptr noundef nonnull align 8 dereferenceable(376) %23)
  %24 = getelementptr inbounds %class.EditAlignPlugin, ptr %5, i32 0, i32 4
  %25 = load ptr, ptr %24, align 8
  %26 = load ptr, ptr %4, align 8
  call void @_ZN11AlignDialog13setCurrentArcEPN3vcg9AlignPair6ResultE(ptr noundef nonnull align 8 dereferenceable(376) %25, ptr noundef %26)
  %27 = getelementptr inbounds %class.EditAlignPlugin, ptr %5, i32 0, i32 4
  %28 = load ptr, ptr %27, align 8
  call void @_ZN7QWidget10setEnabledEb(ptr noundef nonnull align 8 dereferenceable(48) %28, i1 noundef zeroext true)
  %29 = getelementptr inbounds %class.EditAlignPlugin, ptr %5, i32 0, i32 6
  %30 = load ptr, ptr %29, align 8
  call void @_ZN7QWidget6updateEv(ptr noundef nonnull align 8 dereferenceable(48) %30)
  ret void
}