; Function Attrs: mustprogress uwtable
define void @_ZN15EditAlignPlugin16recalcCurrentArcEv(ptr noundef nonnull align 8 dereferenceable(1056) %0) local_unnamed_addr #9 align 2 {
  %2 = getelementptr inbounds i8, ptr %0, i64 56
  %3 = load ptr, ptr %2, align 8
  tail call void @_ZN7QWidget10setEnabledEb(ptr noundef nonnull align 8 dereferenceable(48) %3, i1 noundef zeroext false)
  %4 = getelementptr inbounds i8, ptr %0, i64 680
  %5 = load ptr, ptr %2, align 8
  %6 = getelementptr inbounds i8, ptr %5, i64 296
  %7 = load ptr, ptr %6, align 8
  %8 = getelementptr inbounds i8, ptr %7, i64 4
  %9 = load i32, ptr %8, align 4
  %10 = load i32, ptr %7, align 8
  %11 = getelementptr inbounds i8, ptr %7, i64 352
  tail call void @_ZN3vcg8MeshTreeI9MeshModelfE10ProcessArcEiiRNS_9AlignPair6ResultENS3_5ParamE(ptr noundef nonnull align 8 dereferenceable(240) %4, i32 noundef %9, i32 noundef %10, ptr noundef nonnull align 8 dereferenceable(484) %7, ptr noundef nonnull byval(%"class.vcg::AlignPair::Param") align 8 %11)
  %12 = load ptr, ptr %2, align 8
  %13 = getelementptr inbounds i8, ptr %12, i64 296
  %14 = load ptr, ptr %13, align 8
  %15 = getelementptr inbounds i8, ptr %14, i64 352
  tail call void @_ZN3vcg8MeshTreeI9MeshModelfE13ProcessGlobalERNS_9AlignPair5ParamE(ptr noundef nonnull align 8 dereferenceable(240) %4, ptr noundef nonnull align 8 dereferenceable(112) %15)
  %16 = load ptr, ptr %2, align 8
  %17 = getelementptr inbounds i8, ptr %16, i64 296
  %18 = load ptr, ptr %17, align 8
  tail call void @_ZN11AlignDialog11rebuildTreeEv(ptr noundef nonnull align 8 dereferenceable(376) %16)
  %19 = load ptr, ptr %2, align 8
  tail call void @_ZN11AlignDialog13setCurrentArcEPN3vcg9AlignPair6ResultE(ptr noundef nonnull align 8 dereferenceable(376) %19, ptr noundef %18)
  %20 = load ptr, ptr %2, align 8
  tail call void @_ZN7QWidget10setEnabledEb(ptr noundef nonnull align 8 dereferenceable(48) %20, i1 noundef zeroext true)
  %21 = getelementptr inbounds i8, ptr %0, i64 664
  %22 = load ptr, ptr %21, align 8
  tail call void @_ZN7QWidget6updateEv(ptr noundef nonnull align 8 dereferenceable(48) %22)
  ret void
}